; Function Attrs: mustprogress uwtable
define noundef i32 @_ZNK17RichParameterList24numberAdvancedParametersEv(ptr noundef nonnull readonly align 8 dereferenceable(24) %0) local_unnamed_addr #9 align 2 personality ptr @__gxx_personality_v0 {
  %.sroa.05.08 = load ptr, ptr %0, align 8
  %.not9 = icmp eq ptr %.sroa.05.08, %0
  br i1 %.not9, label %._crit_edge, label %.lr.ph

.lr.ph:                                           ; preds = %1, %.lr.ph
  %.sroa.05.011 = phi ptr [ %.sroa.05.0, %.lr.ph ], [ %.sroa.05.08, %1 ]
  %.010 = phi i32 [ %spec.select, %.lr.ph ], [ 0, %1 ]
  %2 = getelementptr inbounds i8, ptr %.sroa.05.011, i64 16
  %3 = load ptr, ptr %2, align 8
  %4 = tail call noundef zeroext i1 @_ZNK13RichParameter10isAdvancedEv(ptr noundef nonnull align 8 dereferenceable(56) %3)
  %5 = zext i1 %4 to i32
  %spec.select = add i32 %.010, %5
  %.sroa.05.0 = load ptr, ptr %.sroa.05.011, align 8
  %.not = icmp eq ptr %.sroa.05.0, %0
  br i1 %.not, label %._crit_edge, label %.lr.ph

._crit_edge:                                      ; preds = %.lr.ph, %1
  %.0.lcssa = phi i32 [ 0, %1 ], [ %spec.select, %.lr.ph ]
  ret i32 %.0.lcssa
}